; Function Attrs: nounwind uwtable
define dso_local range(i32 0, 94) i32 @curl_easy_send(ptr noundef %0, ptr noundef %1, i64 noundef %2, ptr noundef writeonly captures(none) %3) local_unnamed_addr #5 {
  %5 = alloca i64, align 8
  call void @llvm.lifetime.start.p0(i64 8, ptr nonnull %5) #12
  store i64 0, ptr %5, align 8, !tbaa !101
  %6 = tail call zeroext i1 @Curl_is_in_callback(ptr noundef %0) #12
  br i1 %6, label %10, label %7

7:                                                ; preds = %4
  %8 = call i32 @Curl_senddata(ptr noundef %0, ptr noundef %1, i64 noundef %2, ptr noundef nonnull %5)
  %9 = load i64, ptr %5, align 8, !tbaa !101
  store i64 %9, ptr %3, align 8, !tbaa !101
  br label %10

10:                                               ; preds = %4, %7
  %.0 = phi i32 [ %8, %7 ], [ 93, %4 ]
  call void @llvm.lifetime.end.p0(i64 8, ptr nonnull %5) #12
  ret i32 %.0
}